target datalayout = "e-m:e-p270:32:32-p271:32:32-p272:64:64-i64:64-i128:128-f80:128-n8:16:32:64-S128"
target triple = "x86_64-pc-linux-gnu"

%struct.strvec = type { ptr, i64, i64 }
%struct.credential_capability = type { i8, [3 x i8] }
%struct.option = type { i32, i32, ptr, ptr, ptr, ptr, i32, ptr, i64, ptr, i64, ptr }
%struct.stat = type { i64, i64, i64, i32, i32, i32, i32, i64, i64, i64, i64, %struct.timespec, %struct.timespec, %struct.timespec, [3 x i64] }
%struct.timespec = type { i64, i64 }
%struct.credential = type { %struct.string_list, %struct.strvec, %struct.strvec, %struct.strvec, i16, [2 x i8], %struct.credential_capability, %struct.credential_capability, ptr, ptr, ptr, ptr, ptr, ptr, ptr, i64, ptr }
%struct.string_list = type { ptr, i64, i64, i8, ptr }

@__const.cmd_credential_cache.usage = private unnamed_addr constant [2 x ptr] [ptr @.str, ptr null], align 16
@.str.1 = private unnamed_addr constant [8 x i8] c"timeout\00", align 1
@.str.2 = private unnamed_addr constant [2 x i8] c"n\00", align 1
@.str.3 = private unnamed_addr constant [39 x i8] c"number of seconds to cache credentials\00", align 1
@.str.4 = private unnamed_addr constant [7 x i8] c"socket\00", align 1
@.str.5 = private unnamed_addr constant [5 x i8] c"path\00", align 1
@.str.6 = private unnamed_addr constant [28 x i8] c"path of cache-daemon socket\00", align 1
@.str.7 = private unnamed_addr constant [53 x i8] c"credential-cache unavailable; no unix socket support\00", align 1
@.str.8 = private unnamed_addr constant [52 x i8] c"unable to find a suitable socket path; use --socket\00", align 1
@.str.9 = private unnamed_addr constant [5 x i8] c"exit\00", align 1
@.str.10 = private unnamed_addr constant [4 x i8] c"get\00", align 1
@.str.11 = private unnamed_addr constant [6 x i8] c"erase\00", align 1
@.str.12 = private unnamed_addr constant [6 x i8] c"store\00", align 1
@.str.13 = private unnamed_addr constant [11 x i8] c"capability\00", align 1
@.str.14 = private unnamed_addr constant [1 x i8] zeroinitializer, align 1
@git_gettext_enabled = external global i32, align 4
@.str.15 = private unnamed_addr constant [24 x i8] c"~/.git-credential-cache\00", align 1
@.str.16 = private unnamed_addr constant [10 x i8] c"%s/socket\00", align 1
@.str.17 = private unnamed_addr constant [18 x i8] c"credential/socket\00", align 1
@stdout = external global ptr, align 8

; Function Attrs: nounwind uwtable
define internal void @announce_capabilities() #0 {
  %1 = alloca %struct.credential, align 8
  call void @llvm.lifetime.start.p0(i64 200, ptr %1) #10
  call void @llvm.memcpy.p0.p0.i64(ptr align 8 %1, ptr align 8 @__const.announce_capabilities.c, i64 200, i1 false)
  %2 = getelementptr inbounds nuw %struct.credential, ptr %1, i32 0, i32 6
  %3 = load i8, ptr %2, align 4
  %4 = and i8 %3, -2
  %5 = or i8 %4, 1
  store i8 %5, ptr %2, align 4
  %6 = load ptr, ptr @stdout, align 8, !tbaa !33
  call void @credential_announce_capabilities(ptr noundef %1, ptr noundef %6)
  call void @llvm.lifetime.end.p0(i64 200, ptr %1) #10
  ret void
}

; Function Attrs: nounwind uwtable
define internal ptr @get_socket_path() #0 {
  %1 = alloca %struct.stat, align 8
  %2 = alloca ptr, align 8
  %3 = alloca ptr, align 8
  call void @llvm.lifetime.start.p0(i64 144, ptr %1) #10
  call void @llvm.lifetime.start.p0(i64 8, ptr %2) #10
  call void @llvm.lifetime.start.p0(i64 8, ptr %3) #10
  %4 = call ptr @interpolate_path(ptr noundef @.str.15, i32 noundef 0)
  store ptr %4, ptr %2, align 8, !tbaa !11
  %5 = load ptr, ptr %2, align 8, !tbaa !11
  %6 = icmp ne ptr %5, null
  br i1 %6, label %7, label %19

7:                                                ; preds = %0
  %8 = load ptr, ptr %2, align 8, !tbaa !11
  %9 = call i32 @stat64(ptr noundef %8, ptr noundef %1) #10
  %10 = icmp ne i32 %9, 0
  br i1 %10, label %19, label %11

11:                                               ; preds = %7
  %12 = getelementptr inbounds nuw %struct.stat, ptr %1, i32 0, i32 3
  %13 = load i32, ptr %12, align 8, !tbaa !30
  %14 = and i32 %13, 61440
  %15 = icmp eq i32 %14, 16384
  br i1 %15, label %16, label %19

16:                                               ; preds = %11
  %17 = load ptr, ptr %2, align 8, !tbaa !11
  %18 = call ptr (ptr, ...) @xstrfmt(ptr noundef @.str.16, ptr noundef %17)
  store ptr %18, ptr %3, align 8, !tbaa !11
  br label %21

19:                                               ; preds = %11, %7, %0
  %20 = call ptr @xdg_cache_home(ptr noundef @.str.17)
  store ptr %20, ptr %3, align 8, !tbaa !11
  br label %21

21:                                               ; preds = %19, %16
  %22 = load ptr, ptr %2, align 8, !tbaa !11
  call void @free(ptr noundef %22) #10
  %23 = load ptr, ptr %3, align 8, !tbaa !11
  call void @llvm.lifetime.end.p0(i64 8, ptr %3) #10
  call void @llvm.lifetime.end.p0(i64 8, ptr %2) #10
  call void @llvm.lifetime.end.p0(i64 144, ptr %1) #10
  ret ptr %23
}

; Function Attrs: inlinehint nounwind uwtable
define internal ptr @xstrdup_or_null(ptr noundef %0) #6 {
  %2 = alloca ptr, align 8
  store ptr %0, ptr %2, align 8, !tbaa !11
  %3 = load ptr, ptr %2, align 8, !tbaa !11
  %4 = icmp ne ptr %3, null
  br i1 %4, label %5, label %8

5:                                                ; preds = %1
  %6 = load ptr, ptr %2, align 8, !tbaa !11
  %7 = call ptr @xstrdup(ptr noundef %6)
  br label %9

8:                                                ; preds = %1
  br label %9

9:                                                ; preds = %8, %5
  %10 = phi ptr [ %7, %5 ], [ null, %8 ]
  ret ptr %10
}

; Function Attrs: inlinehint nounwind uwtable
define internal ptr @_(ptr noundef %0) #6 {
  %2 = alloca ptr, align 8
  %3 = alloca ptr, align 8
  store ptr %0, ptr %3, align 8, !tbaa !11
  %4 = load ptr, ptr %3, align 8, !tbaa !11
  %5 = load i8, ptr %4, align 1, !tbaa !29
  %6 = icmp ne i8 %5, 0
  br i1 %6, label %8, label %7

7:                                                ; preds = %1
  store ptr @.str.14, ptr %2, align 8
  br label %16

8:                                                ; preds = %1
  %9 = load i32, ptr @git_gettext_enabled, align 4, !tbaa !4
  %10 = icmp ne i32 %9, 0
  br i1 %10, label %13, label %11

11:                                               ; preds = %8
  %12 = load ptr, ptr %3, align 8, !tbaa !11
  store ptr %12, ptr %2, align 8
  br label %16

13:                                               ; preds = %8
  %14 = load ptr, ptr %3, align 8, !tbaa !11
  %15 = call ptr @dcgettext(ptr noundef null, ptr noundef %14, i32 noundef 5) #10
  store ptr %15, ptr %2, align 8
  br label %16

16:                                               ; preds = %13, %11, %7
  %17 = load ptr, ptr %2, align 8
  ret ptr %17
}

; Function Attrs: inlinehint nounwind uwtable
define internal i32 @_have_unix_sockets() #6 {
  ret i32 1
}

; Function Attrs: nounwind uwtable
define dso_local i32 @cmd_credential_cache(i32 noundef %0, ptr noundef %1, ptr noundef %2, ptr noundef %3) #0 {
  %5 = alloca i32, align 4
  %6 = alloca ptr, align 8
  %7 = alloca ptr, align 8
  %8 = alloca ptr, align 8
  %9 = alloca ptr, align 8
  %10 = alloca ptr, align 8
  %11 = alloca i32, align 4
  %12 = alloca ptr, align 8
  %13 = alloca [2 x ptr], align 16
  %14 = alloca [3 x %struct.option], align 16
  store i32 %0, ptr %5, align 4, !tbaa !4
  store ptr %1, ptr %6, align 8, !tbaa !8
  store ptr %2, ptr %7, align 8, !tbaa !11
  store ptr %3, ptr %8, align 8, !tbaa !13
  call void @llvm.lifetime.start.p0(i64 8, ptr %9) #10
  store ptr null, ptr %9, align 8, !tbaa !11
  call void @llvm.lifetime.start.p0(i64 8, ptr %10) #10
  call void @llvm.lifetime.start.p0(i64 4, ptr %11) #10
  store i32 900, ptr %11, align 4, !tbaa !4
  call void @llvm.lifetime.start.p0(i64 8, ptr %12) #10
  call void @llvm.lifetime.start.p0(i64 16, ptr %13) #10
  call void @llvm.memcpy.p0.p0.i64(ptr align 16 %13, ptr align 16 @__const.cmd_credential_cache.usage, i64 16, i1 false)
  call void @llvm.lifetime.start.p0(i64 264, ptr %14) #10
  %15 = getelementptr inbounds nuw %struct.option, ptr %14, i32 0, i32 0
  store i32 11, ptr %15, align 8, !tbaa !15
  %16 = getelementptr inbounds nuw %struct.option, ptr %14, i32 0, i32 1
  store i32 0, ptr %16, align 4, !tbaa !18
  %17 = getelementptr inbounds nuw %struct.option, ptr %14, i32 0, i32 2
  store ptr @.str.1, ptr %17, align 8, !tbaa !19
  %18 = getelementptr inbounds nuw %struct.option, ptr %14, i32 0, i32 3
  store ptr %11, ptr %18, align 8, !tbaa !20
  %19 = getelementptr inbounds nuw %struct.option, ptr %14, i32 0, i32 4
  store ptr @.str.2, ptr %19, align 8, !tbaa !21
  %20 = getelementptr inbounds nuw %struct.option, ptr %14, i32 0, i32 5
  store ptr @.str.3, ptr %20, align 8, !tbaa !22
  %21 = getelementptr inbounds nuw %struct.option, ptr %14, i32 0, i32 6
  store i32 0, ptr %21, align 8, !tbaa !23
  %22 = getelementptr i8, ptr %14, i64 44
  call void @llvm.memset.p0.i64(ptr align 4 %22, i8 0, i64 4, i1 false)
  %23 = getelementptr inbounds nuw %struct.option, ptr %14, i32 0, i32 7
  store ptr null, ptr %23, align 8, !tbaa !24
  %24 = getelementptr inbounds nuw %struct.option, ptr %14, i32 0, i32 8
  store i64 0, ptr %24, align 8, !tbaa !25
  %25 = getelementptr inbounds nuw %struct.option, ptr %14, i32 0, i32 9
  store ptr null, ptr %25, align 8, !tbaa !26
  %26 = getelementptr inbounds nuw %struct.option, ptr %14, i32 0, i32 10
  store i64 0, ptr %26, align 8, !tbaa !27
  %27 = getelementptr inbounds nuw %struct.option, ptr %14, i32 0, i32 11
  store ptr null, ptr %27, align 8, !tbaa !28
  %28 = getelementptr inbounds %struct.option, ptr %14, i64 1
  %29 = getelementptr inbounds nuw %struct.option, ptr %28, i32 0, i32 0
  store i32 10, ptr %29, align 8, !tbaa !15
  %30 = getelementptr inbounds nuw %struct.option, ptr %28, i32 0, i32 1
  store i32 0, ptr %30, align 4, !tbaa !18
  %31 = getelementptr inbounds nuw %struct.option, ptr %28, i32 0, i32 2
  store ptr @.str.4, ptr %31, align 8, !tbaa !19
  %32 = getelementptr inbounds nuw %struct.option, ptr %28, i32 0, i32 3
  store ptr %9, ptr %32, align 8, !tbaa !20
  %33 = getelementptr inbounds nuw %struct.option, ptr %28, i32 0, i32 4
  store ptr @.str.5, ptr %33, align 8, !tbaa !21
  %34 = getelementptr inbounds nuw %struct.option, ptr %28, i32 0, i32 5
  store ptr @.str.6, ptr %34, align 8, !tbaa !22
  %35 = getelementptr inbounds nuw %struct.option, ptr %28, i32 0, i32 6
  store i32 0, ptr %35, align 8, !tbaa !23
  %36 = getelementptr i8, ptr %28, i64 44
  call void @llvm.memset.p0.i64(ptr align 4 %36, i8 0, i64 4, i1 false)
  %37 = getelementptr inbounds nuw %struct.option, ptr %28, i32 0, i32 7
  store ptr null, ptr %37, align 8, !tbaa !24
  %38 = getelementptr inbounds nuw %struct.option, ptr %28, i32 0, i32 8
  store i64 0, ptr %38, align 8, !tbaa !25
  %39 = getelementptr inbounds nuw %struct.option, ptr %28, i32 0, i32 9
  store ptr null, ptr %39, align 8, !tbaa !26
  %40 = getelementptr inbounds nuw %struct.option, ptr %28, i32 0, i32 10
  store i64 0, ptr %40, align 8, !tbaa !27
  %41 = getelementptr inbounds nuw %struct.option, ptr %28, i32 0, i32 11
  store ptr null, ptr %41, align 8, !tbaa !28
  %42 = getelementptr inbounds %struct.option, ptr %14, i64 2
  call void @llvm.memset.p0.i64(ptr align 8 %42, i8 0, i64 88, i1 false)
  %43 = getelementptr inbounds nuw %struct.option, ptr %42, i32 0, i32 0
  store i32 0, ptr %43, align 8, !tbaa !15
  %44 = load i32, ptr %5, align 4, !tbaa !4
  %45 = load ptr, ptr %6, align 8, !tbaa !8
  %46 = load ptr, ptr %7, align 8, !tbaa !11
  %47 = getelementptr inbounds [3 x %struct.option], ptr %14, i64 0, i64 0
  %48 = getelementptr inbounds [2 x ptr], ptr %13, i64 0, i64 0
  %49 = call i32 @parse_options(i32 noundef %44, ptr noundef %45, ptr noundef %46, ptr noundef %47, ptr noundef %48, i32 noundef 0)
  store i32 %49, ptr %5, align 4, !tbaa !4
  %50 = load i32, ptr %5, align 4, !tbaa !4
  %51 = icmp ne i32 %50, 0
  br i1 %51, label %55, label %52

52:                                               ; preds = %4
  %53 = getelementptr inbounds [2 x ptr], ptr %13, i64 0, i64 0
  %54 = getelementptr inbounds [3 x %struct.option], ptr %14, i64 0, i64 0
  call void @usage_with_options(ptr noundef %53, ptr noundef %54) #11
  unreachable

55:                                               ; preds = %4
  %56 = load ptr, ptr %6, align 8, !tbaa !8
  %57 = getelementptr inbounds ptr, ptr %56, i64 0
  %58 = load ptr, ptr %57, align 8, !tbaa !11
  store ptr %58, ptr %12, align 8, !tbaa !11
  %59 = call i32 @_have_unix_sockets()
  %60 = icmp ne i32 %59, 0
  br i1 %60, label %63, label %61

61:                                               ; preds = %55
  %62 = call ptr @_(ptr noundef @.str.7)
  call void (ptr, ...) @die(ptr noundef %62) #11
  unreachable

63:                                               ; preds = %55
  %64 = load ptr, ptr %9, align 8, !tbaa !11
  %65 = call ptr @xstrdup_or_null(ptr noundef %64)
  store ptr %65, ptr %10, align 8, !tbaa !11
  %66 = load ptr, ptr %10, align 8, !tbaa !11
  %67 = icmp ne ptr %66, null
  br i1 %67, label %70, label %68

68:                                               ; preds = %63
  %69 = call ptr @get_socket_path()
  store ptr %69, ptr %10, align 8, !tbaa !11
  br label %70

70:                                               ; preds = %68, %63
  %71 = load ptr, ptr %10, align 8, !tbaa !11
  %72 = icmp ne ptr %71, null
  br i1 %72, label %74, label %73

73:                                               ; preds = %70
  call void (ptr, ...) @die(ptr noundef @.str.8) #11
  unreachable

74:                                               ; preds = %70
  %75 = load ptr, ptr %12, align 8, !tbaa !11
  %76 = call i32 @strcmp(ptr noundef %75, ptr noundef @.str.9) #12
  %77 = icmp ne i32 %76, 0
  br i1 %77, label %82, label %78

78:                                               ; preds = %74
  %79 = load ptr, ptr %10, align 8, !tbaa !11
  %80 = load ptr, ptr %12, align 8, !tbaa !11
  %81 = load i32, ptr %11, align 4, !tbaa !4
  call void @do_cache(ptr noundef %79, ptr noundef %80, i32 noundef %81, i32 noundef 0)
  br label %111

82:                                               ; preds = %74
  %83 = load ptr, ptr %12, align 8, !tbaa !11
  %84 = call i32 @strcmp(ptr noundef %83, ptr noundef @.str.10) #12
  %85 = icmp ne i32 %84, 0
  br i1 %85, label %86, label %90

86:                                               ; preds = %82
  %87 = load ptr, ptr %12, align 8, !tbaa !11
  %88 = call i32 @strcmp(ptr noundef %87, ptr noundef @.str.11) #12
  %89 = icmp ne i32 %88, 0
  br i1 %89, label %94, label %90

90:                                               ; preds = %86, %82
  %91 = load ptr, ptr %10, align 8, !tbaa !11
  %92 = load ptr, ptr %12, align 8, !tbaa !11
  %93 = load i32, ptr %11, align 4, !tbaa !4
  call void @do_cache(ptr noundef %91, ptr noundef %92, i32 noundef %93, i32 noundef 2)
  br label %110

94:                                               ; preds = %86
  %95 = load ptr, ptr %12, align 8, !tbaa !11
  %96 = call i32 @strcmp(ptr noundef %95, ptr noundef @.str.12) #12
  %97 = icmp ne i32 %96, 0
  br i1 %97, label %102, label %98

98:                                               ; preds = %94
  %99 = load ptr, ptr %10, align 8, !tbaa !11
  %100 = load ptr, ptr %12, align 8, !tbaa !11
  %101 = load i32, ptr %11, align 4, !tbaa !4
  call void @do_cache(ptr noundef %99, ptr noundef %100, i32 noundef %101, i32 noundef 3)
  br label %109

102:                                              ; preds = %94
  %103 = load ptr, ptr %12, align 8, !tbaa !11
  %104 = call i32 @strcmp(ptr noundef %103, ptr noundef @.str.13) #12
  %105 = icmp ne i32 %104, 0
  br i1 %105, label %107, label %106

106:                                              ; preds = %102
  call void @announce_capabilities()
  br label %108

107:                                              ; preds = %102
  br label %108

108:                                              ; preds = %107, %106
  br label %109

109:                                              ; preds = %108, %98
  br label %110

110:                                              ; preds = %109, %90
  br label %111

111:                                              ; preds = %110, %78
  %112 = load ptr, ptr %10, align 8, !tbaa !11
  call void @free(ptr noundef %112) #10
  call void @llvm.lifetime.end.p0(i64 264, ptr %14) #10
  call void @llvm.lifetime.end.p0(i64 16, ptr %13) #10
  call void @llvm.lifetime.end.p0(i64 8, ptr %12) #10
  call void @llvm.lifetime.end.p0(i64 4, ptr %11) #10
  call void @llvm.lifetime.end.p0(i64 8, ptr %10) #10
  call void @llvm.lifetime.end.p0(i64 8, ptr %9) #10
  ret i32 0
}