; Function Attrs: nounwind uwtable
define dso_local noundef i32 @cmd_credential_cache(i32 noundef %0, ptr noundef %1, ptr noundef %2, ptr noundef readnone captures(none) %3) local_unnamed_addr #0 {
  %5 = alloca %struct.credential, align 8
  %6 = alloca %struct.strbuf, align 8
  %7 = alloca %struct.stat, align 8
  %8 = alloca ptr, align 8
  %9 = alloca i32, align 4
  %10 = alloca [2 x ptr], align 16
  %11 = alloca [3 x %struct.option], align 16
  call void @llvm.lifetime.start.p0(i64 8, ptr nonnull %8) #12
  store ptr null, ptr %8, align 8, !tbaa !4
  call void @llvm.lifetime.start.p0(i64 4, ptr nonnull %9) #12
  store i32 900, ptr %9, align 4, !tbaa !9
  call void @llvm.lifetime.start.p0(i64 16, ptr nonnull %10) #12
  call void @llvm.memcpy.p0.p0.i64(ptr noundef nonnull align 16 dereferenceable(16) %10, ptr noundef nonnull align 16 dereferenceable(16) @__const.cmd_credential_cache.usage, i64 16, i1 false)
  call void @llvm.lifetime.start.p0(i64 264, ptr nonnull %11) #12
  store i32 11, ptr %11, align 16, !tbaa !11
  %12 = getelementptr inbounds nuw i8, ptr %11, i64 4
  store i32 0, ptr %12, align 4, !tbaa !14
  %13 = getelementptr inbounds nuw i8, ptr %11, i64 8
  store ptr @.str.1, ptr %13, align 8, !tbaa !15
  %14 = getelementptr inbounds nuw i8, ptr %11, i64 16
  store ptr %9, ptr %14, align 16, !tbaa !16
  %15 = getelementptr inbounds nuw i8, ptr %11, i64 24
  store ptr @.str.2, ptr %15, align 8, !tbaa !17
  %16 = getelementptr inbounds nuw i8, ptr %11, i64 32
  store ptr @.str.3, ptr %16, align 16, !tbaa !18
  %17 = getelementptr inbounds nuw i8, ptr %11, i64 40
  %18 = getelementptr inbounds nuw i8, ptr %11, i64 88
  call void @llvm.memset.p0.i64(ptr noundef nonnull align 8 dereferenceable(48) %17, i8 0, i64 48, i1 false)
  store i32 10, ptr %18, align 8, !tbaa !11
  %19 = getelementptr inbounds nuw i8, ptr %11, i64 92
  store i32 0, ptr %19, align 4, !tbaa !14
  %20 = getelementptr inbounds nuw i8, ptr %11, i64 96
  store ptr @.str.4, ptr %20, align 16, !tbaa !15
  %21 = getelementptr inbounds nuw i8, ptr %11, i64 104
  store ptr %8, ptr %21, align 8, !tbaa !16
  %22 = getelementptr inbounds nuw i8, ptr %11, i64 112
  store ptr @.str.5, ptr %22, align 16, !tbaa !17
  %23 = getelementptr inbounds nuw i8, ptr %11, i64 120
  store ptr @.str.6, ptr %23, align 8, !tbaa !18
  %24 = getelementptr inbounds nuw i8, ptr %11, i64 128
  call void @llvm.memset.p0.i64(ptr noundef nonnull align 16 dereferenceable(136) %24, i8 0, i64 136, i1 false)
  %25 = call i32 @parse_options(i32 noundef %0, ptr noundef %1, ptr noundef %2, ptr noundef nonnull %11, ptr noundef nonnull %10, i32 noundef 0) #12
  %.not = icmp eq i32 %25, 0
  br i1 %.not, label %26, label %27

26:                                               ; preds = %4
  call void @usage_with_options(ptr noundef nonnull %10, ptr noundef nonnull %11) #13
  unreachable

27:                                               ; preds = %4
  %28 = load ptr, ptr %1, align 8, !tbaa !4
  %29 = load ptr, ptr %8, align 8, !tbaa !4
  %.not.i = icmp eq ptr %29, null
  br i1 %.not.i, label %xstrdup_or_null.exit.thread, label %xstrdup_or_null.exit

xstrdup_or_null.exit:                             ; preds = %27
  %30 = call ptr @xstrdup(ptr noundef nonnull %29) #12
  %.not19 = icmp eq ptr %30, null
  br i1 %.not19, label %xstrdup_or_null.exit.thread, label %.thread

xstrdup_or_null.exit.thread:                      ; preds = %27, %xstrdup_or_null.exit
  call void @llvm.lifetime.start.p0(i64 144, ptr nonnull %7) #12
  %31 = call ptr @interpolate_path(ptr noundef nonnull @.str.15, i32 noundef 0) #12
  %.not.i26 = icmp eq ptr %31, null
  br i1 %.not.i26, label %41, label %32

32:                                               ; preds = %xstrdup_or_null.exit.thread
  %33 = call i32 @stat64(ptr noundef nonnull %31, ptr noundef nonnull %7) #12
  %.not6.i = icmp eq i32 %33, 0
  br i1 %.not6.i, label %34, label %41

34:                                               ; preds = %32
  %35 = getelementptr inbounds nuw i8, ptr %7, i64 24
  %36 = load i32, ptr %35, align 8, !tbaa !19
  %37 = and i32 %36, 61440
  %38 = icmp eq i32 %37, 16384
  br i1 %38, label %39, label %41

39:                                               ; preds = %34
  %40 = call ptr (ptr, ...) @xstrfmt(ptr noundef nonnull @.str.16, ptr noundef nonnull %31) #12
  br label %43

41:                                               ; preds = %34, %32, %xstrdup_or_null.exit.thread
  %42 = call ptr @xdg_cache_home(ptr noundef nonnull @.str.17) #12
  br label %43

43:                                               ; preds = %41, %39
  %.0.i = phi ptr [ %42, %41 ], [ %40, %39 ]
  call void @free(ptr noundef %31) #12
  call void @llvm.lifetime.end.p0(i64 144, ptr nonnull %7) #12
  %.not20 = icmp eq ptr %.0.i, null
  br i1 %.not20, label %44, label %.thread

44:                                               ; preds = %43
  call void (ptr, ...) @die(ptr noundef nonnull @.str.8) #13
  unreachable

.thread:                                          ; preds = %xstrdup_or_null.exit, %43
  %.030 = phi ptr [ %.0.i, %43 ], [ %30, %xstrdup_or_null.exit ]
  %45 = call i32 @strcmp(ptr noundef nonnull dereferenceable(1) %28, ptr noundef nonnull dereferenceable(5) @.str.9) #14
  %.not21 = icmp eq i32 %45, 0
  br i1 %.not21, label %46, label %54

46:                                               ; preds = %.thread
  %47 = load i32, ptr %9, align 4, !tbaa !9
  call void @llvm.lifetime.start.p0(i64 24, ptr nonnull %6) #12
  call void @llvm.memcpy.p0.p0.i64(ptr noundef nonnull align 8 dereferenceable(24) %6, ptr noundef nonnull align 8 dereferenceable(24) @__const.do_cache.buf, i64 24, i1 false)
  call void (ptr, ptr, ...) @strbuf_addf(ptr noundef nonnull %6, ptr noundef nonnull @.str.18, ptr noundef nonnull %28) #12
  call void (ptr, ptr, ...) @strbuf_addf(ptr noundef nonnull %6, ptr noundef nonnull @.str.19, i32 noundef %47) #12
  %48 = call fastcc i32 @send_request(ptr noundef nonnull %.030, ptr noundef %6)
  %49 = icmp slt i32 %48, 0
  br i1 %49, label %50, label %do_cache.exit

50:                                               ; preds = %46
  %51 = tail call ptr @__errno_location() #15
  %52 = load i32, ptr %51, align 4, !tbaa !9
  switch i32 %52, label %53 [
    i32 111, label %do_cache.exit
    i32 2, label %do_cache.exit
  ]

53:                                               ; preds = %50
  call void (ptr, ...) @die_errno(ptr noundef nonnull @.str.21) #13
  unreachable

do_cache.exit:                                    ; preds = %50, %50, %46
  call void @strbuf_release(ptr noundef nonnull %6) #12
  call void @llvm.lifetime.end.p0(i64 24, ptr nonnull %6) #12
  br label %69

54:                                               ; preds = %.thread
  %55 = call i32 @strcmp(ptr noundef nonnull dereferenceable(1) %28, ptr noundef nonnull dereferenceable(4) @.str.10) #14
  %.not22 = icmp eq i32 %55, 0
  br i1 %.not22, label %58, label %56

56:                                               ; preds = %54
  %57 = call i32 @strcmp(ptr noundef nonnull dereferenceable(1) %28, ptr noundef nonnull dereferenceable(6) @.str.11) #14
  %.not23 = icmp eq i32 %57, 0
  br i1 %.not23, label %58, label %60

58:                                               ; preds = %56, %54
  %59 = load i32, ptr %9, align 4, !tbaa !9
  call fastcc void @do_cache(ptr noundef %.030, ptr noundef nonnull %28, i32 noundef %59, i32 noundef 2)
  br label %69

60:                                               ; preds = %56
  %61 = call i32 @strcmp(ptr noundef nonnull dereferenceable(1) %28, ptr noundef nonnull dereferenceable(6) @.str.12) #14
  %.not24 = icmp eq i32 %61, 0
  br i1 %.not24, label %62, label %64

62:                                               ; preds = %60
  %63 = load i32, ptr %9, align 4, !tbaa !9
  call fastcc void @do_cache(ptr noundef %.030, ptr noundef nonnull %28, i32 noundef %63, i32 noundef 3)
  br label %69

64:                                               ; preds = %60
  %65 = call i32 @strcmp(ptr noundef nonnull dereferenceable(1) %28, ptr noundef nonnull dereferenceable(11) @.str.13) #14
  %.not25 = icmp eq i32 %65, 0
  br i1 %.not25, label %66, label %69

66:                                               ; preds = %64
  call void @llvm.lifetime.start.p0(i64 200, ptr nonnull %5) #12
  call void @llvm.memcpy.p0.p0.i64(ptr noundef nonnull align 8 dereferenceable(200) %5, ptr noundef nonnull align 8 dereferenceable(200) @__const.announce_capabilities.c, i64 200, i1 false)
  %67 = getelementptr inbounds nuw i8, ptr %5, i64 116
  store i8 1, ptr %67, align 4
  %68 = load ptr, ptr @stdout, align 8, !tbaa !22
  call void @credential_announce_capabilities(ptr noundef nonnull %5, ptr noundef %68) #12
  call void @llvm.lifetime.end.p0(i64 200, ptr nonnull %5) #12
  br label %69

69:                                               ; preds = %58, %66, %64, %62, %do_cache.exit
  call void @free(ptr noundef nonnull %.030) #12
  call void @llvm.lifetime.end.p0(i64 264, ptr nonnull %11) #12
  call void @llvm.lifetime.end.p0(i64 16, ptr nonnull %10) #12
  call void @llvm.lifetime.end.p0(i64 4, ptr nonnull %9) #12
  call void @llvm.lifetime.end.p0(i64 8, ptr nonnull %8) #12
  ret i32 0
}